; Function Attrs: mustprogress nounwind uwtable
define hidden noundef zeroext i1 @_ZN6hermes2vm15instrumentation11PerfCounter5beginEv(ptr nocapture noundef nonnull align 8 dereferenceable(32) %this) local_unnamed_addr #0 align 2 {
entry:
  %pe.i = alloca %struct.perf_event_attr, align 8
  %0 = load i32, ptr %this, align 8
  %cmp = icmp eq i32 %0, -1
  br i1 %cmp, label %land.lhs.true, label %if.end

land.lhs.true:                                    ; preds = %entry
  call void @llvm.lifetime.start.p0(i64 128, ptr nonnull %pe.i)
  %1 = getelementptr inbounds i8, ptr %pe.i, i64 16
  call void @llvm.memset.p0.i64(ptr noundef nonnull align 8 dereferenceable(128) %1, i8 0, i64 112, i1 false)
  %type_.i = getelementptr inbounds i8, ptr %this, i64 16
  %2 = load i32, ptr %type_.i, align 8
  store i32 %2, ptr %pe.i, align 8
  %size.i = getelementptr inbounds i8, ptr %pe.i, i64 4
  store i32 128, ptr %size.i, align 4
  %config_.i = getelementptr inbounds i8, ptr %this, i64 24
  %3 = load i64, ptr %config_.i, align 8
  %config.i = getelementptr inbounds i8, ptr %pe.i, i64 8
  store i64 %3, ptr %config.i, align 8
  %disabled.i = getelementptr inbounds i8, ptr %pe.i, i64 40
  store i64 97, ptr %disabled.i, align 8
  %call.i = call i64 (i64, ...) @syscall(i64 noundef 298, ptr noundef nonnull %pe.i, i32 noundef 0, i32 noundef -1, i32 noundef -1, i32 noundef 0) #8
  %conv.i = trunc i64 %call.i to i32
  store i32 %conv.i, ptr %this, align 8
  %cmp.i.not = icmp eq i32 %conv.i, -1
  call void @llvm.lifetime.end.p0(i64 128, ptr nonnull %pe.i)
  br i1 %cmp.i.not, label %return, label %if.end

if.end:                                           ; preds = %land.lhs.true, %entry
  %4 = phi i32 [ %conv.i, %land.lhs.true ], [ %0, %entry ]
  %call3 = call i32 (i32, i64, ...) @ioctl(i32 noundef %4, i64 noundef 9219, i32 noundef 0) #8
  %5 = load i32, ptr %this, align 8
  %call5 = call i32 (i32, i64, ...) @ioctl(i32 noundef %5, i64 noundef 9216, i32 noundef 0) #8
  br label %return

return:                                           ; preds = %land.lhs.true, %if.end
  %retval.0 = phi i1 [ true, %if.end ], [ false, %land.lhs.true ]
  ret i1 %retval.0
}